; ModuleID = '36/545.c'
source_filename = "36/545.c"
target datalayout = "e-m:e-p270:32:32-p271:32:32-p272:64:64-i64:64-f80:128-n8:16:32:64-S128"
target triple = "x86_64-pc-linux-gnu"

@.str = private unnamed_addr constant [5 x i8] c"%s%s\00", align 1
@.str.1 = private unnamed_addr constant [4 x i8] c"YES\00", align 1
@.str.2 = private unnamed_addr constant [3 x i8] c"NO\00", align 1

; Function Attrs: noinline nounwind uwtable
define dso_local i32 @f(i8* %0, i8* %1) #0 {
  %3 = alloca i32, align 4
  %4 = alloca i8*, align 8
  %5 = alloca i8*, align 8
  %6 = alloca i32, align 4
  %7 = alloca i32, align 4
  %8 = alloca i32, align 4
  %9 = alloca i32, align 4
  %10 = alloca i8, align 1
  store i8* %0, i8** %4, align 8
  store i8* %1, i8** %5, align 8
  %11 = load i8*, i8** %4, align 8
  %12 = call i64 @strlen(i8* %11) #3
  %13 = trunc i64 %12 to i32
  store i32 %13, i32* %6, align 4
  %14 = load i8*, i8** %5, align 8
  %15 = call i64 @strlen(i8* %14) #3
  %16 = trunc i64 %15 to i32
  store i32 %16, i32* %7, align 4
  %17 = load i32, i32* %6, align 4
  %18 = load i32, i32* %7, align 4
  %19 = icmp ne i32 %17, %18
  br i1 %19, label %20, label %21

20:                                               ; preds = %2
  store i32 0, i32* %3, align 4
  br label %90

21:                                               ; preds = %2
  store i32 0, i32* %8, align 4
  br label %22

22:                                               ; preds = %86, %21
  %23 = load i32, i32* %8, align 4
  %24 = load i32, i32* %6, align 4
  %25 = icmp sle i32 %23, %24
  br i1 %25, label %26, label %89

26:                                               ; preds = %22
  %27 = load i32, i32* %8, align 4
  store i32 %27, i32* %9, align 4
  br label %28

28:                                               ; preds = %67, %26
  %29 = load i32, i32* %9, align 4
  %30 = load i32, i32* %7, align 4
  %31 = icmp sle i32 %29, %30
  br i1 %31, label %32, label %70

32:                                               ; preds = %28
  %33 = load i8*, i8** %5, align 8
  %34 = load i32, i32* %9, align 4
  %35 = sext i32 %34 to i64
  %36 = getelementptr inbounds i8, i8* %33, i64 %35
  %37 = load i8, i8* %36, align 1
  %38 = sext i8 %37 to i32
  %39 = load i8*, i8** %4, align 8
  %40 = load i32, i32* %8, align 4
  %41 = sext i32 %40 to i64
  %42 = getelementptr inbounds i8, i8* %39, i64 %41
  %43 = load i8, i8* %42, align 1
  %44 = sext i8 %43 to i32
  %45 = icmp eq i32 %38, %44
  br i1 %45, label %46, label %66

46:                                               ; preds = %32
  %47 = load i8*, i8** %5, align 8
  %48 = load i32, i32* %9, align 4
  %49 = sext i32 %48 to i64
  %50 = getelementptr inbounds i8, i8* %47, i64 %49
  %51 = load i8, i8* %50, align 1
  store i8 %51, i8* %10, align 1
  %52 = load i8*, i8** %5, align 8
  %53 = load i32, i32* %8, align 4
  %54 = sext i32 %53 to i64
  %55 = getelementptr inbounds i8, i8* %52, i64 %54
  %56 = load i8, i8* %55, align 1
  %57 = load i8*, i8** %5, align 8
  %58 = load i32, i32* %9, align 4
  %59 = sext i32 %58 to i64
  %60 = getelementptr inbounds i8, i8* %57, i64 %59
  store i8 %56, i8* %60, align 1
  %61 = load i8, i8* %10, align 1
  %62 = load i8*, i8** %5, align 8
  %63 = load i32, i32* %8, align 4
  %64 = sext i32 %63 to i64
  %65 = getelementptr inbounds i8, i8* %62, i64 %64
  store i8 %61, i8* %65, align 1
  br label %70

66:                                               ; preds = %32
  br label %67

67:                                               ; preds = %66
  %68 = load i32, i32* %9, align 4
  %69 = add nsw i32 %68, 1
  store i32 %69, i32* %9, align 4
  br label %28

70:                                               ; preds = %46, %28
  %71 = load i8*, i8** %4, align 8
  %72 = load i32, i32* %8, align 4
  %73 = sext i32 %72 to i64
  %74 = getelementptr inbounds i8, i8* %71, i64 %73
  %75 = load i8, i8* %74, align 1
  %76 = sext i8 %75 to i32
  %77 = load i8*, i8** %5, align 8
  %78 = load i32, i32* %8, align 4
  %79 = sext i32 %78 to i64
  %80 = getelementptr inbounds i8, i8* %77, i64 %79
  %81 = load i8, i8* %80, align 1
  %82 = sext i8 %81 to i32
  %83 = icmp ne i32 %76, %82
  br i1 %83, label %84, label %85

84:                                               ; preds = %70
  store i32 0, i32* %3, align 4
  br label %90

85:                                               ; preds = %70
  br label %86

86:                                               ; preds = %85
  %87 = load i32, i32* %8, align 4
  %88 = add nsw i32 %87, 1
  store i32 %88, i32* %8, align 4
  br label %22

89:                                               ; preds = %22
  store i32 1, i32* %3, align 4
  br label %90

90:                                               ; preds = %89, %84, %20
  %91 = load i32, i32* %3, align 4
  ret i32 %91
}

; Function Attrs: nounwind readonly
declare dso_local i64 @strlen(i8*) #1

; Function Attrs: noinline nounwind uwtable
define dso_local void @main() #0 {
  %1 = alloca [20 x i8], align 16
  %2 = alloca [20 x i8], align 16
  %3 = alloca i32, align 4
  %4 = getelementptr inbounds [20 x i8], [20 x i8]* %1, i64 0, i64 0
  %5 = getelementptr inbounds [20 x i8], [20 x i8]* %2, i64 0, i64 0
  %6 = call i32 (i8*, ...) @__isoc99_scanf(i8* getelementptr inbounds ([5 x i8], [5 x i8]* @.str, i64 0, i64 0), i8* %4, i8* %5)
  %7 = getelementptr inbounds [20 x i8], [20 x i8]* %1, i64 0, i64 0
  %8 = getelementptr inbounds [20 x i8], [20 x i8]* %2, i64 0, i64 0
  %9 = call i32 @f(i8* %7, i8* %8)
  store i32 %9, i32* %3, align 4
  %10 = load i32, i32* %3, align 4
  %11 = icmp eq i32 %10, 1
  br i1 %11, label %12, label %14

12:                                               ; preds = %0
  %13 = call i32 (i8*, ...) @printf(i8* getelementptr inbounds ([4 x i8], [4 x i8]* @.str.1, i64 0, i64 0))
  br label %16

14:                                               ; preds = %0
  %15 = call i32 (i8*, ...) @printf(i8* getelementptr inbounds ([3 x i8], [3 x i8]* @.str.2, i64 0, i64 0))
  br label %16

16:                                               ; preds = %14, %12
  ret void
}

declare dso_local i32 @__isoc99_scanf(i8*, ...) #2

declare dso_local i32 @printf(i8*, ...) #2


!llvm.module.flags = !{!0}
!llvm.ident = !{!1}

!0 = !{i32 1, !"wchar_size", i32 4}
!1 = !{!"clang version 10.0.0-4ubuntu1 "}
